target datalayout = "e-m:e-p270:32:32-p271:32:32-p272:64:64-i64:64-i128:128-f80:128-n8:16:32:64-S128"
target triple = "x86_64-pc-linux-gnu"

%class.BitMap = type { ptr, i64 }
%class.G1HeapRegionManager = type { ptr, ptr, %class.G1CommittedRegionMap, i32, [4 x i8], %class.G1HeapRegionTable, ptr, ptr, %class.G1FreeRegionList }
%class.G1CommittedRegionMap = type { ptr, %class.CHeapBitMap, %class.CHeapBitMap, i32, i32 }
%class.CHeapBitMap = type <{ %class.GrowableBitMap, i8, [7 x i8] }>
%class.GrowableBitMap = type { %class.BitMap }
%class.G1HeapRegionTable = type { %class.G1BiasedMappedArray.base, [4 x i8] }
%class.G1BiasedMappedArray.base = type { %class.G1BiasedMappedArrayBase.base }
%class.G1BiasedMappedArrayBase.base = type <{ ptr, ptr, ptr, i64, ptr, i64, i32 }>
%class.G1FreeRegionList = type { %class.G1HeapRegionSetBase.base, ptr, ptr, ptr, ptr }
%class.G1HeapRegionSetBase.base = type <{ ptr, ptr, i32, [4 x i8], ptr, i8 }>
%class.G1HeapRegionRange = type { i32, i32 }

; Function Attrs: mustprogress nounwind uwtable
define linkonce_odr hidden noundef i32 @_ZNK17G1HeapRegionRange3endEv(ptr noundef nonnull align 4 dereferenceable(8) %0) #1 comdat align 2 {
  %2 = alloca ptr, align 8
  store ptr %0, ptr %2, align 8
  %3 = load ptr, ptr %2, align 8
  %4 = getelementptr inbounds %class.G1HeapRegionRange, ptr %3, i32 0, i32 1
  %5 = load i32, ptr %4, align 4
  ret i32 %5
}

; Function Attrs: mustprogress nounwind uwtable
define linkonce_odr hidden noundef i32 @_ZNK17G1HeapRegionRange5startEv(ptr noundef nonnull align 4 dereferenceable(8) %0) #1 comdat align 2 {
  %2 = alloca ptr, align 8
  store ptr %0, ptr %2, align 8
  %3 = load ptr, ptr %2, align 8
  %4 = getelementptr inbounds %class.G1HeapRegionRange, ptr %3, i32 0, i32 0
  %5 = load i32, ptr %4, align 4
  ret i32 %5
}

; Function Attrs: mustprogress nounwind uwtable
define linkonce_odr hidden noundef i32 @_Z4MIN2IjET_S0_S0_(i32 noundef %0, i32 noundef %1) #1 comdat {
  %3 = alloca i32, align 4
  %4 = alloca i32, align 4
  store i32 %0, ptr %3, align 4
  store i32 %1, ptr %4, align 4
  %5 = load i32, ptr %3, align 4
  %6 = load i32, ptr %4, align 4
  %7 = icmp ult i32 %5, %6
  br i1 %7, label %8, label %10

8:                                                ; preds = %2
  %9 = load i32, ptr %3, align 4
  br label %12

10:                                               ; preds = %2
  %11 = load i32, ptr %4, align 4
  br label %12

12:                                               ; preds = %10, %8
  %13 = phi i32 [ %9, %8 ], [ %11, %10 ]
  ret i32 %13
}

; Function Attrs: mustprogress nounwind uwtable
define linkonce_odr hidden noundef i32 @_ZNK17G1HeapRegionRange6lengthEv(ptr noundef nonnull align 4 dereferenceable(8) %0) #1 comdat align 2 {
  %2 = alloca ptr, align 8
  store ptr %0, ptr %2, align 8
  %3 = load ptr, ptr %2, align 8
  %4 = getelementptr inbounds %class.G1HeapRegionRange, ptr %3, i32 0, i32 1
  %5 = load i32, ptr %4, align 4
  %6 = getelementptr inbounds %class.G1HeapRegionRange, ptr %3, i32 0, i32 0
  %7 = load i32, ptr %6, align 4
  %8 = sub i32 %5, %7
  ret i32 %8
}

; Function Attrs: mustprogress nounwind uwtable
define hidden noundef i32 @_ZN19G1HeapRegionManager10expand_anyEjP13WorkerThreads(ptr noundef nonnull align 8 dereferenceable(232) %0, i32 noundef %1, ptr noundef %2) #1 align 2 {
  %4 = alloca ptr, align 8
  %5 = alloca i32, align 4
  %6 = alloca ptr, align 8
  %7 = alloca i32, align 4
  %8 = alloca i32, align 4
  %9 = alloca %class.G1HeapRegionRange, align 4
  %10 = alloca i32, align 4
  store ptr %0, ptr %4, align 8
  store i32 %1, ptr %5, align 4
  store ptr %2, ptr %6, align 8
  %11 = load ptr, ptr %4, align 8
  store i32 0, ptr %7, align 4
  store i32 0, ptr %8, align 4
  br label %12

12:                                               ; preds = %32, %3
  %13 = getelementptr inbounds %class.G1HeapRegionManager, ptr %11, i32 0, i32 2
  %14 = load i32, ptr %7, align 4
  %15 = call i64 @_ZNK20G1CommittedRegionMap22next_committable_rangeEj(ptr noundef nonnull align 8 dereferenceable(64) %13, i32 noundef %14)
  store i64 %15, ptr %9, align 4
  %16 = call noundef i32 @_ZNK17G1HeapRegionRange6lengthEv(ptr noundef nonnull align 4 dereferenceable(8) %9)
  %17 = icmp eq i32 %16, 0
  br i1 %17, label %18, label %19

18:                                               ; preds = %12
  br label %36

19:                                               ; preds = %12
  %20 = load i32, ptr %5, align 4
  %21 = load i32, ptr %8, align 4
  %22 = sub i32 %20, %21
  %23 = call noundef i32 @_ZNK17G1HeapRegionRange6lengthEv(ptr noundef nonnull align 4 dereferenceable(8) %9)
  %24 = call noundef i32 @_Z4MIN2IjET_S0_S0_(i32 noundef %22, i32 noundef %23)
  store i32 %24, ptr %10, align 4
  %25 = call noundef i32 @_ZNK17G1HeapRegionRange5startEv(ptr noundef nonnull align 4 dereferenceable(8) %9)
  %26 = load i32, ptr %10, align 4
  %27 = load ptr, ptr %6, align 8
  call void @_ZN19G1HeapRegionManager6expandEjjP13WorkerThreads(ptr noundef nonnull align 8 dereferenceable(232) %11, i32 noundef %25, i32 noundef %26, ptr noundef %27)
  %28 = load i32, ptr %10, align 4
  %29 = load i32, ptr %8, align 4
  %30 = add i32 %29, %28
  store i32 %30, ptr %8, align 4
  %31 = call noundef i32 @_ZNK17G1HeapRegionRange3endEv(ptr noundef nonnull align 4 dereferenceable(8) %9)
  store i32 %31, ptr %7, align 4
  br label %32

32:                                               ; preds = %19
  %33 = load i32, ptr %8, align 4
  %34 = load i32, ptr %5, align 4
  %35 = icmp ult i32 %33, %34
  br i1 %35, label %12, label %36, !llvm.loop !17

36:                                               ; preds = %32, %18
  %37 = load i32, ptr %8, align 4
  ret i32 %37
}