; Function Attrs: mustprogress nounwind uwtable
define hidden noundef i32 @_ZN19G1HeapRegionManager10expand_anyEjP13WorkerThreads(ptr noundef nonnull align 8 dereferenceable(232) %0, i32 noundef %1, ptr noundef %2) local_unnamed_addr #0 align 2 {
  %4 = getelementptr inbounds i8, ptr %0, i64 16
  br label %5

5:                                                ; preds = %8, %3
  %.010 = phi i32 [ 0, %3 ], [ %12, %8 ]
  %.0 = phi i32 [ 0, %3 ], [ %.sroa.4.0.extract.trunc, %8 ]
  %6 = tail call i64 @_ZNK20G1CommittedRegionMap22next_committable_rangeEj(ptr noundef nonnull align 8 dereferenceable(64) %4, i32 noundef %.0) #16
  %.sroa.0.0.extract.trunc = trunc i64 %6 to i32
  %.sroa.4.0.extract.shift = lshr i64 %6, 32
  %.sroa.4.0.extract.trunc = trunc nuw i64 %.sroa.4.0.extract.shift to i32
  %7 = icmp eq i32 %.sroa.4.0.extract.trunc, %.sroa.0.0.extract.trunc
  br i1 %7, label %14, label %8

8:                                                ; preds = %5
  %9 = sub i32 %.sroa.4.0.extract.trunc, %.sroa.0.0.extract.trunc
  %10 = sub i32 %1, %.010
  %11 = tail call noundef i32 @llvm.umin.i32(i32 %10, i32 %9)
  tail call void @_ZN19G1HeapRegionManager6expandEjjP13WorkerThreads(ptr noundef nonnull align 8 dereferenceable(232) %0, i32 noundef %.sroa.0.0.extract.trunc, i32 noundef %11, ptr noundef %2)
  %12 = add i32 %11, %.010
  %13 = icmp ult i32 %12, %1
  br i1 %13, label %5, label %14, !llvm.loop !22

14:                                               ; preds = %5, %8
  %.1 = phi i32 [ %.010, %5 ], [ %12, %8 ]
  ret i32 %.1
}